target datalayout = "e-m:e-p270:32:32-p271:32:32-p272:64:64-i64:64-i128:128-f80:128-n8:16:32:64-S128"
target triple = "x86_64-pc-linux-gnu"

%struct.SM2_Ciphertext_st = type { ptr, ptr, ptr, ptr }
%struct.asn1_string_st = type { i32, i32, ptr, i64 }

@SM2_Ciphertext_it.local_it = internal constant { i8, [7 x i8], i64, ptr, i64, ptr, i64, ptr } { i8 1, [7 x i8] zeroinitializer, i64 16, ptr @SM2_Ciphertext_seq_tt, i64 4, ptr null, i64 32, ptr @.str }, align 8
@.str.1 = private unnamed_addr constant [34 x i8] c"../openssl/crypto/sm2/sm2_crypt.c\00", align 1
@__func__.ossl_sm2_plaintext_size = private unnamed_addr constant [24 x i8] c"ossl_sm2_plaintext_size\00", align 1

; Function Attrs: nounwind uwtable
define ptr @SM2_Ciphertext_it() #0 {
  ret ptr @SM2_Ciphertext_it.local_it
}

; Function Attrs: nounwind uwtable
define void @SM2_Ciphertext_free(ptr noundef %0) #0 {
  %2 = alloca ptr, align 8
  store ptr %0, ptr %2, align 8, !tbaa !12
  %3 = load ptr, ptr %2, align 8, !tbaa !12
  %4 = call ptr @SM2_Ciphertext_it()
  call void @ASN1_item_free(ptr noundef %3, ptr noundef %4)
  ret void
}

; Function Attrs: nounwind uwtable
define ptr @d2i_SM2_Ciphertext(ptr noundef %0, ptr noundef %1, i64 noundef %2) #0 {
  %4 = alloca ptr, align 8
  %5 = alloca ptr, align 8
  %6 = alloca i64, align 8
  store ptr %0, ptr %4, align 8, !tbaa !3
  store ptr %1, ptr %5, align 8, !tbaa !8
  store i64 %2, ptr %6, align 8, !tbaa !10
  %7 = load ptr, ptr %4, align 8, !tbaa !3
  %8 = load ptr, ptr %5, align 8, !tbaa !8
  %9 = load i64, ptr %6, align 8, !tbaa !10
  %10 = call ptr @SM2_Ciphertext_it()
  %11 = call ptr @ASN1_item_d2i(ptr noundef %7, ptr noundef %8, i64 noundef %9, ptr noundef %10)
  ret ptr %11
}

; Function Attrs: nounwind uwtable
define i32 @ossl_sm2_plaintext_size(ptr noundef %0, i64 noundef %1, ptr noundef %2) #0 {
  %4 = alloca i32, align 4
  %5 = alloca ptr, align 8
  %6 = alloca i64, align 8
  %7 = alloca ptr, align 8
  %8 = alloca ptr, align 8
  %9 = alloca i32, align 4
  store ptr %0, ptr %5, align 8, !tbaa !14
  store i64 %1, ptr %6, align 8, !tbaa !10
  store ptr %2, ptr %7, align 8, !tbaa !16
  call void @llvm.lifetime.start.p0(i64 8, ptr %8) #4
  store ptr null, ptr %8, align 8, !tbaa !12
  %10 = load i64, ptr %6, align 8, !tbaa !10
  %11 = call ptr @d2i_SM2_Ciphertext(ptr noundef null, ptr noundef %5, i64 noundef %10)
  store ptr %11, ptr %8, align 8, !tbaa !12
  %12 = load ptr, ptr %8, align 8, !tbaa !12
  %13 = icmp eq ptr %12, null
  br i1 %13, label %14, label %15

14:                                               ; preds = %3
  call void @ERR_new()
  call void @ERR_set_debug(ptr noundef @.str.1, i32 noundef 77, ptr noundef @__func__.ossl_sm2_plaintext_size)
  call void (i32, i32, ptr, ...) @ERR_set_error(i32 noundef 53, i32 noundef 104, ptr noundef null)
  store i32 0, ptr %4, align 4
  store i32 1, ptr %9, align 4
  br label %24

15:                                               ; preds = %3
  %16 = load ptr, ptr %8, align 8, !tbaa !12
  %17 = getelementptr inbounds nuw %struct.SM2_Ciphertext_st, ptr %16, i32 0, i32 3
  %18 = load ptr, ptr %17, align 8, !tbaa !18
  %19 = getelementptr inbounds nuw %struct.asn1_string_st, ptr %18, i32 0, i32 0
  %20 = load i32, ptr %19, align 8, !tbaa !22
  %21 = sext i32 %20 to i64
  %22 = load ptr, ptr %7, align 8, !tbaa !16
  store i64 %21, ptr %22, align 8, !tbaa !10
  %23 = load ptr, ptr %8, align 8, !tbaa !12
  call void @SM2_Ciphertext_free(ptr noundef %23)
  store i32 1, ptr %4, align 4
  store i32 1, ptr %9, align 4
  br label %24

24:                                               ; preds = %15, %14
  call void @llvm.lifetime.end.p0(i64 8, ptr %8) #4
  %25 = load i32, ptr %4, align 4
  ret i32 %25
}