; Function Attrs: nounwind uwtable
define range(i32 0, 2) i32 @ossl_sm2_plaintext_size(ptr noundef %0, i64 noundef %1, ptr noundef writeonly captures(none) %2) local_unnamed_addr #1 {
  %4 = alloca ptr, align 8
  store ptr %0, ptr %4, align 8, !tbaa !3
  %5 = call ptr @ASN1_item_d2i(ptr noundef null, ptr noundef nonnull %4, i64 noundef %1, ptr noundef nonnull @SM2_Ciphertext_it.local_it) #5
  %6 = icmp eq ptr %5, null
  br i1 %6, label %7, label %8

7:                                                ; preds = %3
  call void @ERR_new() #5
  call void @ERR_set_debug(ptr noundef nonnull @.str.1, i32 noundef 77, ptr noundef nonnull @__func__.ossl_sm2_plaintext_size) #5
  call void (i32, i32, ptr, ...) @ERR_set_error(i32 noundef 53, i32 noundef 104, ptr noundef null) #5
  br label %13

8:                                                ; preds = %3
  %9 = getelementptr inbounds nuw i8, ptr %5, i64 24
  %10 = load ptr, ptr %9, align 8, !tbaa !8
  %11 = load i32, ptr %10, align 8, !tbaa !12
  %12 = sext i32 %11 to i64
  store i64 %12, ptr %2, align 8, !tbaa !16
  call void @ASN1_item_free(ptr noundef nonnull %5, ptr noundef nonnull @SM2_Ciphertext_it.local_it) #5
  br label %13

13:                                               ; preds = %8, %7
  %.0 = phi i32 [ 0, %7 ], [ 1, %8 ]
  ret i32 %.0
}